target datalayout = "e-m:e-p270:32:32-p271:32:32-p272:64:64-i64:64-i128:128-f80:128-n8:16:32:64-S128"
target triple = "x86_64-pc-linux-gnu"

%"struct.std::_Rb_tree_header" = type { %"struct.std::_Rb_tree_node_base", i64 }
%"struct.std::_Rb_tree_node_base" = type { i32, ptr, ptr, ptr }
%"struct.vcpkg::StringView" = type { ptr, i64 }
%"class.std::__cxx11::basic_string" = type { %"struct.std::__cxx11::basic_string<char>::_Alloc_hider", i64, %union.anon }
%"struct.std::__cxx11::basic_string<char>::_Alloc_hider" = type { ptr }
%union.anon = type { i64, [8 x i8] }
%"class.std::vector" = type { %"struct.std::_Vector_base" }
%"struct.std::_Vector_base" = type { %"struct.std::_Vector_base<std::__cxx11::basic_string<char>, std::allocator<std::__cxx11::basic_string<char>>>::_Vector_impl" }
%"struct.std::_Vector_base<std::__cxx11::basic_string<char>, std::allocator<std::__cxx11::basic_string<char>>>::_Vector_impl" = type { %"struct.std::_Vector_base<std::__cxx11::basic_string<char>, std::allocator<std::__cxx11::basic_string<char>>>::_Vector_impl_data" }
%"struct.std::_Vector_base<std::__cxx11::basic_string<char>, std::allocator<std::__cxx11::basic_string<char>>>::_Vector_impl_data" = type { ptr, ptr, ptr }
%"struct.vcpkg::LineInfo" = type { i32, ptr }
%"struct.vcpkg::Optional" = type { %"struct.vcpkg::details::OptionalStorage" }
%"struct.vcpkg::details::OptionalStorage" = type { ptr }
%"struct.vcpkg::InstallPlanAction" = type { %"struct.vcpkg::PackageAction", %"struct.vcpkg::Optional.43", %"struct.vcpkg::Optional.45", %"struct.vcpkg::Optional.53", i32, i32, %"struct.vcpkg::BuildPackageOptions", %"class.std::map", %"class.std::vector.59", %"struct.vcpkg::Triplet", %"struct.vcpkg::Optional.64", %"struct.vcpkg::Optional.79" }
%"struct.vcpkg::PackageAction" = type { %"struct.vcpkg::BasicAction", %"class.std::vector.38", %"struct.vcpkg::InternalFeatureSet" }
%"struct.vcpkg::BasicAction" = type { %"struct.vcpkg::PackageSpec" }
%"struct.vcpkg::PackageSpec" = type { %"class.std::__cxx11::basic_string", %"struct.vcpkg::Triplet" }
%"class.std::vector.38" = type { %"struct.std::_Vector_base.39" }
%"struct.std::_Vector_base.39" = type { %"struct.std::_Vector_base<vcpkg::PackageSpec, std::allocator<vcpkg::PackageSpec>>::_Vector_impl" }
%"struct.std::_Vector_base<vcpkg::PackageSpec, std::allocator<vcpkg::PackageSpec>>::_Vector_impl" = type { %"struct.std::_Vector_base<vcpkg::PackageSpec, std::allocator<vcpkg::PackageSpec>>::_Vector_impl_data" }
%"struct.std::_Vector_base<vcpkg::PackageSpec, std::allocator<vcpkg::PackageSpec>>::_Vector_impl_data" = type { ptr, ptr, ptr }
%"struct.vcpkg::InternalFeatureSet" = type { %"class.std::vector" }
%"struct.vcpkg::Optional.43" = type { %"struct.vcpkg::details::OptionalStorage.44" }
%"struct.vcpkg::details::OptionalStorage.44" = type { ptr }
%"struct.vcpkg::Optional.45" = type { %"struct.vcpkg::details::OptionalStorage.46" }
%"struct.vcpkg::details::OptionalStorage.46" = type { i8, %union.anon.47 }
%union.anon.47 = type { %"struct.vcpkg::InstalledPackageView" }
%"struct.vcpkg::InstalledPackageView" = type { ptr, %"class.std::vector.48" }
%"class.std::vector.48" = type { %"struct.std::_Vector_base.49" }
%"struct.std::_Vector_base.49" = type { %"struct.std::_Vector_base<const vcpkg::StatusParagraph *, std::allocator<const vcpkg::StatusParagraph *>>::_Vector_impl" }
%"struct.std::_Vector_base<const vcpkg::StatusParagraph *, std::allocator<const vcpkg::StatusParagraph *>>::_Vector_impl" = type { %"struct.std::_Vector_base<const vcpkg::StatusParagraph *, std::allocator<const vcpkg::StatusParagraph *>>::_Vector_impl_data" }
%"struct.std::_Vector_base<const vcpkg::StatusParagraph *, std::allocator<const vcpkg::StatusParagraph *>>::_Vector_impl_data" = type { ptr, ptr, ptr }
%"struct.vcpkg::Optional.53" = type { %"struct.vcpkg::details::OptionalStorage.54" }
%"struct.vcpkg::details::OptionalStorage.54" = type { i8, %union.anon.55 }
%union.anon.55 = type { %"class.std::vector" }
%"struct.vcpkg::BuildPackageOptions" = type { i32, i32, i32, i32, i32, i32, i32, i32, i32, i32, i32, i32 }
%"class.std::map" = type { %"class.std::_Rb_tree" }
%"class.std::_Rb_tree" = type { %"struct.std::_Rb_tree<std::__cxx11::basic_string<char>, std::pair<const std::__cxx11::basic_string<char>, std::vector<vcpkg::FeatureSpec>>, std::_Select1st<std::pair<const std::__cxx11::basic_string<char>, std::vector<vcpkg::FeatureSpec>>>, std::less<std::__cxx11::basic_string<char>>>::_Rb_tree_impl" }
%"struct.std::_Rb_tree<std::__cxx11::basic_string<char>, std::pair<const std::__cxx11::basic_string<char>, std::vector<vcpkg::FeatureSpec>>, std::_Select1st<std::pair<const std::__cxx11::basic_string<char>, std::vector<vcpkg::FeatureSpec>>>, std::less<std::__cxx11::basic_string<char>>>::_Rb_tree_impl" = type { %"struct.std::_Rb_tree_key_compare", %"struct.std::_Rb_tree_header" }
%"struct.std::_Rb_tree_key_compare" = type { %"struct.std::less" }
%"struct.std::less" = type { i8 }
%"class.std::vector.59" = type { %"struct.std::_Vector_base.60" }
%"struct.std::_Vector_base.60" = type { %"struct.std::_Vector_base<vcpkg::LocalizedString, std::allocator<vcpkg::LocalizedString>>::_Vector_impl" }
%"struct.std::_Vector_base<vcpkg::LocalizedString, std::allocator<vcpkg::LocalizedString>>::_Vector_impl" = type { %"struct.std::_Vector_base<vcpkg::LocalizedString, std::allocator<vcpkg::LocalizedString>>::_Vector_impl_data" }
%"struct.std::_Vector_base<vcpkg::LocalizedString, std::allocator<vcpkg::LocalizedString>>::_Vector_impl_data" = type { ptr, ptr, ptr }
%"struct.vcpkg::Triplet" = type { ptr }
%"struct.vcpkg::Optional.64" = type { %"struct.vcpkg::details::OptionalStorage.65" }
%"struct.vcpkg::details::OptionalStorage.65" = type { i8, %union.anon.66 }
%union.anon.66 = type { %"struct.vcpkg::AbiInfo" }
%"struct.vcpkg::AbiInfo" = type { %"class.std::unique_ptr.67", %"struct.vcpkg::Optional.75", %"struct.vcpkg::Optional.77", %"struct.vcpkg::Optional", %"class.std::__cxx11::basic_string", %"struct.vcpkg::Optional.79", %"class.std::vector.82", %"class.std::vector", %"class.std::vector.87" }
%"class.std::unique_ptr.67" = type { %"struct.std::__uniq_ptr_data.68" }
%"struct.std::__uniq_ptr_data.68" = type { %"class.std::__uniq_ptr_impl.69" }
%"class.std::__uniq_ptr_impl.69" = type { %"class.std::tuple.70" }
%"class.std::tuple.70" = type { %"struct.std::_Tuple_impl.71" }
%"struct.std::_Tuple_impl.71" = type { %"struct.std::_Head_base.74" }
%"struct.std::_Head_base.74" = type { ptr }
%"struct.vcpkg::Optional.75" = type { %"struct.vcpkg::details::OptionalStorage.76" }
%"struct.vcpkg::details::OptionalStorage.76" = type { ptr }
%"struct.vcpkg::Optional.77" = type { %"struct.vcpkg::details::OptionalStorage.78" }
%"struct.vcpkg::details::OptionalStorage.78" = type { ptr }
%"class.std::vector.82" = type { %"struct.std::_Vector_base.83" }
%"struct.std::_Vector_base.83" = type { %"struct.std::_Vector_base<vcpkg::Path, std::allocator<vcpkg::Path>>::_Vector_impl" }
%"struct.std::_Vector_base<vcpkg::Path, std::allocator<vcpkg::Path>>::_Vector_impl" = type { %"struct.std::_Vector_base<vcpkg::Path, std::allocator<vcpkg::Path>>::_Vector_impl_data" }
%"struct.std::_Vector_base<vcpkg::Path, std::allocator<vcpkg::Path>>::_Vector_impl_data" = type { ptr, ptr, ptr }
%"class.std::vector.87" = type { %"struct.std::_Vector_base.88" }
%"struct.std::_Vector_base.88" = type { %"struct.std::_Vector_base<vcpkg::Json::Value, std::allocator<vcpkg::Json::Value>>::_Vector_impl" }
%"struct.std::_Vector_base<vcpkg::Json::Value, std::allocator<vcpkg::Json::Value>>::_Vector_impl" = type { %"struct.std::_Vector_base<vcpkg::Json::Value, std::allocator<vcpkg::Json::Value>>::_Vector_impl_data" }
%"struct.std::_Vector_base<vcpkg::Json::Value, std::allocator<vcpkg::Json::Value>>::_Vector_impl_data" = type { ptr, ptr, ptr }
%"struct.vcpkg::Optional.79" = type { %"struct.vcpkg::details::OptionalStorage.80" }
%"struct.vcpkg::details::OptionalStorage.80" = type { i8, %union.anon.81 }
%union.anon.81 = type { %"struct.vcpkg::Path" }
%"struct.vcpkg::Path" = type { %"class.std::__cxx11::basic_string" }
%"struct.vcpkg::Version" = type <{ %"class.std::__cxx11::basic_string", i32, [4 x i8] }>
%"struct.vcpkg::NugetReference" = type { %"class.std::__cxx11::basic_string", %"class.std::__cxx11::basic_string" }

@.str.1 = private unnamed_addr constant [122 x i8] c"generated/home/dtcxzyw/WorkSpace/Projects/compilers/llvm-opt-benchmark/bench/vcpkg/vcpkg-tool/src/vcpkg/binarycaching.cpp\00", align 1
@.str.116 = private unnamed_addr constant [15 x i8] c"Value was null\00", align 1

; Function Attrs: mustprogress nounwind uwtable
define linkonce_odr dso_local noundef nonnull align 8 dereferenceable(176) ptr @_ZNK5vcpkg7details15OptionalStorageINS_7AbiInfoELb0EE5valueEv(ptr noundef nonnull align 8 dereferenceable(184) %0) #1 comdat align 2 {
  %2 = alloca ptr, align 8
  store ptr %0, ptr %2, align 8
  %3 = load ptr, ptr %2, align 8
  %4 = getelementptr inbounds %"struct.vcpkg::details::OptionalStorage.65", ptr %3, i32 0, i32 1
  ret ptr %4
}

; Function Attrs: mustprogress nounwind uwtable
define linkonce_odr dso_local void @_ZN5vcpkg10StringViewC2EPKc(ptr noundef nonnull align 8 dereferenceable(16) %0, ptr noundef %1) unnamed_addr #1 comdat align 2 {
  %3 = alloca ptr, align 8
  %4 = alloca ptr, align 8
  store ptr %0, ptr %3, align 8
  store ptr %1, ptr %4, align 8
  %5 = load ptr, ptr %3, align 8
  %6 = getelementptr inbounds %"struct.vcpkg::StringView", ptr %5, i32 0, i32 0
  %7 = load ptr, ptr %4, align 8
  store ptr %7, ptr %6, align 8
  %8 = getelementptr inbounds %"struct.vcpkg::StringView", ptr %5, i32 0, i32 1
  %9 = load ptr, ptr %4, align 8
  %10 = call i64 @strlen(ptr noundef %9) #19
  store i64 %10, ptr %8, align 8
  ret void
}

; Function Attrs: mustprogress nounwind uwtable
define linkonce_odr dso_local noundef zeroext i1 @_ZNK5vcpkg7details15OptionalStorageINS_7AbiInfoELb0EE9has_valueEv(ptr noundef nonnull align 8 dereferenceable(184) %0) #1 comdat align 2 {
  %2 = alloca ptr, align 8
  store ptr %0, ptr %2, align 8
  %3 = load ptr, ptr %2, align 8
  %4 = getelementptr inbounds %"struct.vcpkg::details::OptionalStorage.65", ptr %3, i32 0, i32 0
  %5 = load i8, ptr %4, align 8
  %6 = trunc i8 %5 to i1
  ret i1 %6
}

; Function Attrs: mustprogress nounwind uwtable
define linkonce_odr dso_local void @_ZN5vcpkg7VersionD2Ev(ptr noundef nonnull align 8 dereferenceable(36) %0) unnamed_addr #1 comdat align 2 {
  %2 = alloca ptr, align 8
  store ptr %0, ptr %2, align 8
  %3 = load ptr, ptr %2, align 8
  %4 = getelementptr inbounds %"struct.vcpkg::Version", ptr %3, i32 0, i32 0
  call void @_ZNSt7__cxx1112basic_stringIcSt11char_traitsIcESaIcEED1Ev(ptr noundef nonnull align 8 dereferenceable(32) %4) #8
  ret void
}

; Function Attrs: mustprogress nounwind uwtable
define linkonce_odr dso_local noundef nonnull align 8 dereferenceable(176) ptr @_ZNKR5vcpkg8OptionalINS_7AbiInfoEE13value_or_exitERKNS_8LineInfoE(ptr noundef nonnull align 8 dereferenceable(184) %0, ptr noundef nonnull align 8 dereferenceable(16) %1) #1 comdat align 2 personality ptr @__gxx_personality_v0 {
  %3 = alloca ptr, align 8
  %4 = alloca ptr, align 8
  %5 = alloca %"struct.vcpkg::StringView", align 8
  store ptr %0, ptr %3, align 8
  store ptr %1, ptr %4, align 8
  %6 = load ptr, ptr %3, align 8
  %7 = load ptr, ptr %4, align 8
  %8 = call noundef zeroext i1 @_ZNK5vcpkg7details15OptionalStorageINS_7AbiInfoELb0EE9has_valueEv(ptr noundef nonnull align 8 dereferenceable(184) %6) #8
  call void @_ZN5vcpkg10StringViewC2EPKc(ptr noundef nonnull align 8 dereferenceable(16) %5, ptr noundef @.str.116) #8
  %9 = getelementptr inbounds { ptr, i64 }, ptr %5, i32 0, i32 0
  %10 = load ptr, ptr %9, align 8
  %11 = getelementptr inbounds { ptr, i64 }, ptr %5, i32 0, i32 1
  %12 = load i64, ptr %11, align 8
  invoke void @_ZN5vcpkg6Checks10check_exitERKNS_8LineInfoEbNS_10StringViewE(ptr noundef nonnull align 8 dereferenceable(16) %7, i1 noundef zeroext %8, ptr %10, i64 %12)
          to label %13 unwind label %15

13:                                               ; preds = %2
  %14 = call noundef nonnull align 8 dereferenceable(176) ptr @_ZNK5vcpkg7details15OptionalStorageINS_7AbiInfoELb0EE5valueEv(ptr noundef nonnull align 8 dereferenceable(184) %6) #8
  ret ptr %14

15:                                               ; preds = %2
  %16 = landingpad { ptr, i32 }
          catch ptr null
  %17 = extractvalue { ptr, i32 } %16, 0
  call void @__clang_call_terminate(ptr %17) #17
  unreachable
}

; Function Attrs: mustprogress uwtable
define dso_local void @_ZN5vcpkg13make_nugetrefERKNS_17InstallPlanActionENS_10StringViewE(ptr dead_on_unwind noalias writable sret(%"struct.vcpkg::NugetReference") align 8 %0, ptr noundef nonnull align 8 dereferenceable(528) %1, ptr %2, i64 %3) #0 personality ptr @__gxx_personality_v0 {
  %5 = alloca ptr, align 8
  %6 = alloca %"struct.vcpkg::StringView", align 8
  %7 = alloca ptr, align 8
  %8 = alloca %"struct.vcpkg::Version", align 8
  %9 = alloca %"struct.vcpkg::StringView", align 8
  %10 = alloca %"struct.vcpkg::LineInfo", align 8
  %11 = alloca %"struct.vcpkg::StringView", align 8
  %12 = alloca ptr, align 8
  %13 = alloca i32, align 4
  store ptr %0, ptr %5, align 8
  %14 = getelementptr inbounds { ptr, i64 }, ptr %6, i32 0, i32 0
  store ptr %2, ptr %14, align 8
  %15 = getelementptr inbounds { ptr, i64 }, ptr %6, i32 0, i32 1
  store i64 %3, ptr %15, align 8
  store ptr %1, ptr %7, align 8
  %16 = load ptr, ptr %7, align 8
  %17 = getelementptr inbounds %"struct.vcpkg::BasicAction", ptr %16, i32 0, i32 0
  %18 = load ptr, ptr %7, align 8
  call void @_ZNK5vcpkg17InstallPlanAction7versionEv(ptr dead_on_unwind writable sret(%"struct.vcpkg::Version") align 8 %8, ptr noundef nonnull align 8 dereferenceable(528) %18)
  %19 = load ptr, ptr %7, align 8
  %20 = getelementptr inbounds %"struct.vcpkg::InstallPlanAction", ptr %19, i32 0, i32 10
  %21 = getelementptr inbounds %"struct.vcpkg::LineInfo", ptr %10, i32 0, i32 0
  store i32 2570, ptr %21, align 8
  %22 = getelementptr inbounds %"struct.vcpkg::LineInfo", ptr %10, i32 0, i32 1
  store ptr @.str.1, ptr %22, align 8
  %23 = call noundef nonnull align 8 dereferenceable(176) ptr @_ZNKR5vcpkg8OptionalINS_7AbiInfoEE13value_or_exitERKNS_8LineInfoE(ptr noundef nonnull align 8 dereferenceable(184) %20, ptr noundef nonnull align 8 dereferenceable(16) %10) #8
  %24 = getelementptr inbounds %"struct.vcpkg::AbiInfo", ptr %23, i32 0, i32 4
  call void @_ZN5vcpkg10StringViewC1ERKNSt7__cxx1112basic_stringIcSt11char_traitsIcESaIcEEE(ptr noundef nonnull align 8 dereferenceable(16) %9, ptr noundef nonnull align 8 dereferenceable(32) %24) #8
  call void @llvm.memcpy.p0.p0.i64(ptr align 8 %11, ptr align 8 %6, i64 16, i1 false)
  %25 = getelementptr inbounds { ptr, i64 }, ptr %9, i32 0, i32 0
  %26 = load ptr, ptr %25, align 8
  %27 = getelementptr inbounds { ptr, i64 }, ptr %9, i32 0, i32 1
  %28 = load i64, ptr %27, align 8
  invoke void @_ZN12_GLOBAL__N_113make_nugetrefERKN5vcpkg11PackageSpecERKNS0_7VersionENS0_10StringViewES7_(ptr dead_on_unwind writable sret(%"struct.vcpkg::NugetReference") align 8 %0, ptr noundef nonnull align 8 dereferenceable(40) %17, ptr noundef nonnull align 8 dereferenceable(36) %8, ptr %26, i64 %28, ptr noundef byval(%"struct.vcpkg::StringView") align 8 %11)
          to label %29 unwind label %30

29:                                               ; preds = %4
  call void @_ZN5vcpkg7VersionD2Ev(ptr noundef nonnull align 8 dereferenceable(36) %8) #8
  ret void

30:                                               ; preds = %4
  %31 = landingpad { ptr, i32 }
          cleanup
  %32 = extractvalue { ptr, i32 } %31, 0
  store ptr %32, ptr %12, align 8
  %33 = extractvalue { ptr, i32 } %31, 1
  store i32 %33, ptr %13, align 4
  call void @_ZN5vcpkg7VersionD2Ev(ptr noundef nonnull align 8 dereferenceable(36) %8) #8
  br label %34

34:                                               ; preds = %30
  %35 = load ptr, ptr %12, align 8
  %36 = load i32, ptr %13, align 4
  %37 = insertvalue { ptr, i32 } poison, ptr %35, 0
  %38 = insertvalue { ptr, i32 } %37, i32 %36, 1
  resume { ptr, i32 } %38
}