; Function Attrs: mustprogress uwtable
define dso_local void @_ZN5vcpkg13make_nugetrefERKNS_17InstallPlanActionENS_10StringViewE(ptr dead_on_unwind noalias writable sret(%"struct.vcpkg::NugetReference") align 8 %0, ptr noundef nonnull align 8 dereferenceable(528) %1, ptr %2, i64 %3) local_unnamed_addr #0 personality ptr @__gxx_personality_v0 {
  %5 = alloca %"struct.vcpkg::Version", align 8
  %6 = alloca %"struct.vcpkg::StringView", align 8
  %7 = alloca %"struct.vcpkg::LineInfo", align 8
  call void @_ZNK5vcpkg17InstallPlanAction7versionEv(ptr dead_on_unwind nonnull writable sret(%"struct.vcpkg::Version") align 8 %5, ptr noundef nonnull align 8 dereferenceable(528) %1)
  %8 = getelementptr inbounds i8, ptr %1, i64 304
  store i32 2570, ptr %7, align 8
  %9 = getelementptr inbounds i8, ptr %7, i64 8
  store ptr @.str.1, ptr %9, align 8
  %10 = load i8, ptr %8, align 8
  %11 = and i8 %10, 1
  %12 = icmp ne i8 %11, 0
  invoke void @_ZN5vcpkg6Checks10check_exitERKNS_8LineInfoEbNS_10StringViewE(ptr noundef nonnull align 8 dereferenceable(16) %7, i1 noundef zeroext %12, ptr nonnull @.str.116, i64 14)
          to label %_ZNKR5vcpkg8OptionalINS_7AbiInfoEE13value_or_exitERKNS_8LineInfoE.exit unwind label %13

13:                                               ; preds = %4
  %14 = landingpad { ptr, i32 }
          catch ptr null
  %15 = extractvalue { ptr, i32 } %14, 0
  call void @__clang_call_terminate(ptr %15) #27
  unreachable

_ZNKR5vcpkg8OptionalINS_7AbiInfoEE13value_or_exitERKNS_8LineInfoE.exit: ; preds = %4
  %16 = getelementptr inbounds i8, ptr %1, i64 344
  call void @_ZN5vcpkg10StringViewC1ERKNSt7__cxx1112basic_stringIcSt11char_traitsIcESaIcEEE(ptr noundef nonnull align 8 dereferenceable(16) %6, ptr noundef nonnull align 8 dereferenceable(32) %16) #24
  %17 = load ptr, ptr %6, align 8
  %18 = getelementptr inbounds i8, ptr %6, i64 8
  %19 = load i64, ptr %18, align 8
  invoke fastcc void @_ZN12_GLOBAL__N_113make_nugetrefERKN5vcpkg11PackageSpecERKNS0_7VersionENS0_10StringViewES7_(ptr dead_on_unwind noalias writable align 8 %0, ptr noundef nonnull align 8 dereferenceable(40) %1, ptr noundef nonnull align 8 dereferenceable(36) %5, ptr %17, i64 %19, ptr %2, i64 %3)
          to label %20 unwind label %21

20:                                               ; preds = %_ZNKR5vcpkg8OptionalINS_7AbiInfoEE13value_or_exitERKNS_8LineInfoE.exit
  call void @_ZNSt7__cxx1112basic_stringIcSt11char_traitsIcESaIcEED1Ev(ptr noundef nonnull align 8 dereferenceable(32) %5) #24
  ret void

21:                                               ; preds = %_ZNKR5vcpkg8OptionalINS_7AbiInfoEE13value_or_exitERKNS_8LineInfoE.exit
  %22 = landingpad { ptr, i32 }
          cleanup
  call void @_ZNSt7__cxx1112basic_stringIcSt11char_traitsIcESaIcEED1Ev(ptr noundef nonnull align 8 dereferenceable(32) %5) #24
  resume { ptr, i32 } %22
}